target datalayout = "e-m:e-p270:32:32-p271:32:32-p272:64:64-i64:64-i128:128-f80:128-n8:16:32:64-S128"
target triple = "x86_64-pc-linux-gnu"

%struct.PS_DriverRec_ = type { %struct.FT_DriverRec_, i32, i8, [8 x i32], i32 }
%struct.FT_DriverRec_ = type { %struct.FT_ModuleRec_, ptr, %struct.FT_ListRec_, ptr }
%struct.FT_ModuleRec_ = type { ptr, ptr, ptr }
%struct.FT_ListRec_ = type { ptr, ptr }

; Function Attrs: nounwind uwtable
define internal i32 @cid_driver_init(ptr noundef %0) #0 {
  %2 = alloca ptr, align 8
  %3 = alloca ptr, align 8
  %4 = alloca i32, align 4
  store ptr %0, ptr %2, align 8
  %5 = load ptr, ptr %2, align 8
  store ptr %5, ptr %3, align 8
  %6 = load ptr, ptr %3, align 8
  %7 = getelementptr inbounds %struct.PS_DriverRec_, ptr %6, i32 0, i32 1
  store i32 1, ptr %7, align 8
  %8 = load ptr, ptr %3, align 8
  %9 = getelementptr inbounds %struct.PS_DriverRec_, ptr %8, i32 0, i32 2
  store i8 1, ptr %9, align 4
  %10 = load ptr, ptr %3, align 8
  %11 = getelementptr inbounds %struct.PS_DriverRec_, ptr %10, i32 0, i32 3
  %12 = getelementptr inbounds [8 x i32], ptr %11, i64 0, i64 0
  store i32 500, ptr %12, align 8
  %13 = load ptr, ptr %3, align 8
  %14 = getelementptr inbounds %struct.PS_DriverRec_, ptr %13, i32 0, i32 3
  %15 = getelementptr inbounds [8 x i32], ptr %14, i64 0, i64 1
  store i32 400, ptr %15, align 4
  %16 = load ptr, ptr %3, align 8
  %17 = getelementptr inbounds %struct.PS_DriverRec_, ptr %16, i32 0, i32 3
  %18 = getelementptr inbounds [8 x i32], ptr %17, i64 0, i64 2
  store i32 1000, ptr %18, align 8
  %19 = load ptr, ptr %3, align 8
  %20 = getelementptr inbounds %struct.PS_DriverRec_, ptr %19, i32 0, i32 3
  %21 = getelementptr inbounds [8 x i32], ptr %20, i64 0, i64 3
  store i32 275, ptr %21, align 4
  %22 = load ptr, ptr %3, align 8
  %23 = getelementptr inbounds %struct.PS_DriverRec_, ptr %22, i32 0, i32 3
  %24 = getelementptr inbounds [8 x i32], ptr %23, i64 0, i64 4
  store i32 1667, ptr %24, align 8
  %25 = load ptr, ptr %3, align 8
  %26 = getelementptr inbounds %struct.PS_DriverRec_, ptr %25, i32 0, i32 3
  %27 = getelementptr inbounds [8 x i32], ptr %26, i64 0, i64 5
  store i32 275, ptr %27, align 4
  %28 = load ptr, ptr %3, align 8
  %29 = getelementptr inbounds %struct.PS_DriverRec_, ptr %28, i32 0, i32 3
  %30 = getelementptr inbounds [8 x i32], ptr %29, i64 0, i64 6
  store i32 2333, ptr %30, align 8
  %31 = load ptr, ptr %3, align 8
  %32 = getelementptr inbounds %struct.PS_DriverRec_, ptr %31, i32 0, i32 3
  %33 = getelementptr inbounds [8 x i32], ptr %32, i64 0, i64 7
  store i32 0, ptr %33, align 4
  %34 = ptrtoint ptr %4 to i64
  %35 = ptrtoint ptr %2 to i64
  %36 = xor i64 %34, %35
  %37 = load ptr, ptr %2, align 8
  %38 = getelementptr inbounds %struct.FT_ModuleRec_, ptr %37, i32 0, i32 2
  %39 = load ptr, ptr %38, align 8
  %40 = ptrtoint ptr %39 to i64
  %41 = xor i64 %36, %40
  %42 = trunc i64 %41 to i32
  store i32 %42, ptr %4, align 4
  %43 = load i32, ptr %4, align 4
  %44 = load i32, ptr %4, align 4
  %45 = lshr i32 %44, 10
  %46 = xor i32 %43, %45
  %47 = load i32, ptr %4, align 4
  %48 = lshr i32 %47, 20
  %49 = xor i32 %46, %48
  store i32 %49, ptr %4, align 4
  %50 = load i32, ptr %4, align 4
  %51 = load ptr, ptr %3, align 8
  %52 = getelementptr inbounds %struct.PS_DriverRec_, ptr %51, i32 0, i32 4
  store i32 %50, ptr %52, align 8
  %53 = load ptr, ptr %3, align 8
  %54 = getelementptr inbounds %struct.PS_DriverRec_, ptr %53, i32 0, i32 4
  %55 = load i32, ptr %54, align 8
  %56 = icmp slt i32 %55, 0
  br i1 %56, label %57, label %64

57:                                               ; preds = %1
  %58 = load ptr, ptr %3, align 8
  %59 = getelementptr inbounds %struct.PS_DriverRec_, ptr %58, i32 0, i32 4
  %60 = load i32, ptr %59, align 8
  %61 = sub nsw i32 0, %60
  %62 = load ptr, ptr %3, align 8
  %63 = getelementptr inbounds %struct.PS_DriverRec_, ptr %62, i32 0, i32 4
  store i32 %61, ptr %63, align 8
  br label %73

64:                                               ; preds = %1
  %65 = load ptr, ptr %3, align 8
  %66 = getelementptr inbounds %struct.PS_DriverRec_, ptr %65, i32 0, i32 4
  %67 = load i32, ptr %66, align 8
  %68 = icmp eq i32 %67, 0
  br i1 %68, label %69, label %72

69:                                               ; preds = %64
  %70 = load ptr, ptr %3, align 8
  %71 = getelementptr inbounds %struct.PS_DriverRec_, ptr %70, i32 0, i32 4
  store i32 123456789, ptr %71, align 8
  br label %72

72:                                               ; preds = %69, %64
  br label %73

73:                                               ; preds = %72, %57
  ret i32 0
}