; Function Attrs: mustprogress nofree norecurse nosync nounwind willreturn memory(argmem: readwrite) uwtable
define internal noundef i32 @cid_driver_init(ptr noundef captures(none) initializes((56, 61), (64, 100)) %0) #0 {
  %2 = alloca ptr, align 8
  %3 = alloca i32, align 4
  %4 = getelementptr inbounds nuw i8, ptr %0, i64 56
  store i32 1, ptr %4, align 8
  %5 = getelementptr inbounds nuw i8, ptr %0, i64 60
  store i8 1, ptr %5, align 4
  %6 = getelementptr inbounds nuw i8, ptr %0, i64 64
  store i32 500, ptr %6, align 8
  %7 = getelementptr inbounds nuw i8, ptr %0, i64 68
  store i32 400, ptr %7, align 4
  %8 = getelementptr inbounds nuw i8, ptr %0, i64 72
  store i32 1000, ptr %8, align 8
  %9 = getelementptr inbounds nuw i8, ptr %0, i64 76
  store i32 275, ptr %9, align 4
  %10 = getelementptr inbounds nuw i8, ptr %0, i64 80
  store i32 1667, ptr %10, align 8
  %11 = getelementptr inbounds nuw i8, ptr %0, i64 84
  store i32 275, ptr %11, align 4
  %12 = getelementptr inbounds nuw i8, ptr %0, i64 88
  store i32 2333, ptr %12, align 8
  %13 = getelementptr inbounds nuw i8, ptr %0, i64 92
  store i32 0, ptr %13, align 4
  %14 = ptrtoint ptr %3 to i64
  %15 = ptrtoint ptr %2 to i64
  %16 = xor i64 %14, %15
  %17 = getelementptr inbounds nuw i8, ptr %0, i64 16
  %18 = load ptr, ptr %17, align 8
  %19 = ptrtoint ptr %18 to i64
  %20 = xor i64 %16, %19
  %21 = trunc i64 %20 to i32
  %22 = lshr i32 %21, 10
  %23 = lshr i32 %21, 20
  %24 = xor i32 %22, %23
  %25 = xor i32 %24, %21
  %26 = getelementptr inbounds nuw i8, ptr %0, i64 96
  store i32 %25, ptr %26, align 8
  %27 = icmp slt i32 %21, 0
  br i1 %27, label %28, label %30

28:                                               ; preds = %1
  %29 = sub nsw i32 0, %25
  br label %.sink.split

30:                                               ; preds = %1
  %31 = icmp eq i32 %24, %21
  br i1 %31, label %.sink.split, label %32

.sink.split:                                      ; preds = %30, %28
  %.sink = phi i32 [ %29, %28 ], [ 123456789, %30 ]
  store i32 %.sink, ptr %26, align 8
  br label %32

32:                                               ; preds = %.sink.split, %30
  ret i32 0
}